; ModuleID = '41/798.c'
source_filename = "41/798.c"
target datalayout = "e-m:e-p270:32:32-p271:32:32-p272:64:64-i64:64-f80:128-n8:16:32:64-S128"
target triple = "x86_64-pc-linux-gnu"

@.str = private unnamed_addr constant [15 x i8] c"%d %d %d %d %d\00", align 1

; Function Attrs: noinline nounwind uwtable
define dso_local i32 @main() #0 {
  %1 = alloca i32, align 4
  %2 = alloca i32, align 4
  %3 = alloca i32, align 4
  %4 = alloca i32, align 4
  %5 = alloca i32, align 4
  %6 = alloca i32, align 4
  %7 = alloca [6 x i32], align 16
  store i32 0, i32* %1, align 4
  store i32 1, i32* %2, align 4
  br label %8

8:                                                ; preds = %149, %0
  %9 = load i32, i32* %2, align 4
  %10 = icmp sle i32 %9, 5
  br i1 %10, label %11, label %152

11:                                               ; preds = %8
  store i32 1, i32* %3, align 4
  br label %12

12:                                               ; preds = %145, %11
  %13 = load i32, i32* %3, align 4
  %14 = icmp sle i32 %13, 5
  br i1 %14, label %15, label %148

15:                                               ; preds = %12
  store i32 1, i32* %4, align 4
  br label %16

16:                                               ; preds = %141, %15
  %17 = load i32, i32* %4, align 4
  %18 = icmp sle i32 %17, 5
  br i1 %18, label %19, label %144

19:                                               ; preds = %16
  store i32 1, i32* %5, align 4
  br label %20

20:                                               ; preds = %137, %19
  %21 = load i32, i32* %5, align 4
  %22 = icmp sle i32 %21, 5
  br i1 %22, label %23, label %140

23:                                               ; preds = %20
  store i32 1, i32* %6, align 4
  br label %24

24:                                               ; preds = %133, %23
  %25 = load i32, i32* %6, align 4
  %26 = icmp sle i32 %25, 5
  br i1 %26, label %27, label %136

27:                                               ; preds = %24
  %28 = load i32, i32* %6, align 4
  %29 = icmp ne i32 %28, 2
  br i1 %29, label %30, label %132

30:                                               ; preds = %27
  %31 = load i32, i32* %6, align 4
  %32 = icmp ne i32 %31, 3
  br i1 %32, label %33, label %132

33:                                               ; preds = %30
  %34 = load i32, i32* %2, align 4
  %35 = load i32, i32* %3, align 4
  %36 = icmp ne i32 %34, %35
  br i1 %36, label %37, label %132

37:                                               ; preds = %33
  %38 = load i32, i32* %2, align 4
  %39 = load i32, i32* %4, align 4
  %40 = icmp ne i32 %38, %39
  br i1 %40, label %41, label %132

41:                                               ; preds = %37
  %42 = load i32, i32* %2, align 4
  %43 = load i32, i32* %5, align 4
  %44 = icmp ne i32 %42, %43
  br i1 %44, label %45, label %132

45:                                               ; preds = %41
  %46 = load i32, i32* %2, align 4
  %47 = load i32, i32* %6, align 4
  %48 = icmp ne i32 %46, %47
  br i1 %48, label %49, label %132

49:                                               ; preds = %45
  %50 = load i32, i32* %3, align 4
  %51 = load i32, i32* %4, align 4
  %52 = icmp ne i32 %50, %51
  br i1 %52, label %53, label %132

53:                                               ; preds = %49
  %54 = load i32, i32* %3, align 4
  %55 = load i32, i32* %5, align 4
  %56 = icmp ne i32 %54, %55
  br i1 %56, label %57, label %132

57:                                               ; preds = %53
  %58 = load i32, i32* %3, align 4
  %59 = load i32, i32* %6, align 4
  %60 = icmp ne i32 %58, %59
  br i1 %60, label %61, label %132

61:                                               ; preds = %57
  %62 = load i32, i32* %4, align 4
  %63 = load i32, i32* %5, align 4
  %64 = icmp ne i32 %62, %63
  br i1 %64, label %65, label %132

65:                                               ; preds = %61
  %66 = load i32, i32* %4, align 4
  %67 = load i32, i32* %6, align 4
  %68 = icmp ne i32 %66, %67
  br i1 %68, label %69, label %132

69:                                               ; preds = %65
  %70 = load i32, i32* %5, align 4
  %71 = load i32, i32* %6, align 4
  %72 = icmp ne i32 %70, %71
  br i1 %72, label %73, label %132

73:                                               ; preds = %69
  %74 = load i32, i32* %6, align 4
  %75 = icmp eq i32 %74, 1
  %76 = zext i1 %75 to i32
  %77 = load i32, i32* %2, align 4
  %78 = sext i32 %77 to i64
  %79 = getelementptr inbounds [6 x i32], [6 x i32]* %7, i64 0, i64 %78
  store i32 %76, i32* %79, align 4
  %80 = load i32, i32* %3, align 4
  %81 = icmp eq i32 %80, 2
  %82 = zext i1 %81 to i32
  %83 = load i32, i32* %3, align 4
  %84 = sext i32 %83 to i64
  %85 = getelementptr inbounds [6 x i32], [6 x i32]* %7, i64 0, i64 %84
  store i32 %82, i32* %85, align 4
  %86 = load i32, i32* %2, align 4
  %87 = icmp eq i32 %86, 5
  %88 = zext i1 %87 to i32
  %89 = load i32, i32* %4, align 4
  %90 = sext i32 %89 to i64
  %91 = getelementptr inbounds [6 x i32], [6 x i32]* %7, i64 0, i64 %90
  store i32 %88, i32* %91, align 4
  %92 = load i32, i32* %4, align 4
  %93 = icmp ne i32 %92, 1
  %94 = zext i1 %93 to i32
  %95 = load i32, i32* %5, align 4
  %96 = sext i32 %95 to i64
  %97 = getelementptr inbounds [6 x i32], [6 x i32]* %7, i64 0, i64 %96
  store i32 %94, i32* %97, align 4
  %98 = load i32, i32* %5, align 4
  %99 = icmp eq i32 %98, 1
  %100 = zext i1 %99 to i32
  %101 = load i32, i32* %6, align 4
  %102 = sext i32 %101 to i64
  %103 = getelementptr inbounds [6 x i32], [6 x i32]* %7, i64 0, i64 %102
  store i32 %100, i32* %103, align 4
  %104 = getelementptr inbounds [6 x i32], [6 x i32]* %7, i64 0, i64 1
  %105 = load i32, i32* %104, align 4
  %106 = icmp eq i32 %105, 1
  br i1 %106, label %107, label %130

107:                                              ; preds = %73
  %108 = getelementptr inbounds [6 x i32], [6 x i32]* %7, i64 0, i64 2
  %109 = load i32, i32* %108, align 8
  %110 = icmp eq i32 %109, 1
  br i1 %110, label %111, label %130

111:                                              ; preds = %107
  %112 = getelementptr inbounds [6 x i32], [6 x i32]* %7, i64 0, i64 3
  %113 = load i32, i32* %112, align 4
  %114 = icmp ne i32 %113, 1
  br i1 %114, label %115, label %130

115:                                              ; preds = %111
  %116 = getelementptr inbounds [6 x i32], [6 x i32]* %7, i64 0, i64 4
  %117 = load i32, i32* %116, align 16
  %118 = icmp ne i32 %117, 1
  br i1 %118, label %119, label %130

119:                                              ; preds = %115
  %120 = getelementptr inbounds [6 x i32], [6 x i32]* %7, i64 0, i64 5
  %121 = load i32, i32* %120, align 4
  %122 = icmp ne i32 %121, 1
  br i1 %122, label %123, label %130

123:                                              ; preds = %119
  %124 = load i32, i32* %2, align 4
  %125 = load i32, i32* %3, align 4
  %126 = load i32, i32* %4, align 4
  %127 = load i32, i32* %5, align 4
  %128 = load i32, i32* %6, align 4
  %129 = call i32 (i8*, ...) @printf(i8* getelementptr inbounds ([15 x i8], [15 x i8]* @.str, i64 0, i64 0), i32 %124, i32 %125, i32 %126, i32 %127, i32 %128)
  br label %131

130:                                              ; preds = %119, %115, %111, %107, %73
  br label %133

131:                                              ; preds = %123
  br label %132

132:                                              ; preds = %131, %69, %65, %61, %57, %53, %49, %45, %41, %37, %33, %30, %27
  br label %133

133:                                              ; preds = %132, %130
  %134 = load i32, i32* %6, align 4
  %135 = add nsw i32 %134, 1
  store i32 %135, i32* %6, align 4
  br label %24

136:                                              ; preds = %24
  br label %137

137:                                              ; preds = %136
  %138 = load i32, i32* %5, align 4
  %139 = add nsw i32 %138, 1
  store i32 %139, i32* %5, align 4
  br label %20

140:                                              ; preds = %20
  br label %141

141:                                              ; preds = %140
  %142 = load i32, i32* %4, align 4
  %143 = add nsw i32 %142, 1
  store i32 %143, i32* %4, align 4
  br label %16

144:                                              ; preds = %16
  br label %145

145:                                              ; preds = %144
  %146 = load i32, i32* %3, align 4
  %147 = add nsw i32 %146, 1
  store i32 %147, i32* %3, align 4
  br label %12

148:                                              ; preds = %12
  br label %149

149:                                              ; preds = %148
  %150 = load i32, i32* %2, align 4
  %151 = add nsw i32 %150, 1
  store i32 %151, i32* %2, align 4
  br label %8

152:                                              ; preds = %8
  ret i32 0
}

declare dso_local i32 @printf(i8*, ...) #1


!llvm.module.flags = !{!0}
!llvm.ident = !{!1}

!0 = !{i32 1, !"wchar_size", i32 4}
!1 = !{!"clang version 10.0.0-4ubuntu1 "}
